; Function Attrs: nounwind uwtable
define ptr @l___private_Lean_LocalContext_0__Lean_LocalContext_popTailNoneAux(ptr noundef %0) local_unnamed_addr #2 {
  br label %2

2:                                                ; preds = %lean_dec.exit26, %1
  %.023 = phi ptr [ %0, %1 ], [ %62, %lean_dec.exit26 ]
  %3 = getelementptr inbounds nuw i8, ptr %.023, i64 24
  %4 = load ptr, ptr %3, align 8, !tbaa !9
  %5 = ptrtoint ptr %4 to i64
  %6 = and i64 %5, 1
  %.not = icmp eq i64 %6, 0
  br i1 %.not, label %7, label %lean_nat_eq.exit

7:                                                ; preds = %2
  %.val.i = load i32, ptr %4, align 4, !tbaa !4
  %8 = icmp sgt i32 %.val.i, 0
  br i1 %8, label %9, label %11, !prof !11

9:                                                ; preds = %7
  %10 = add nuw i32 %.val.i, 1
  store i32 %10, ptr %4, align 4, !tbaa !4
  br label %lean_nat_eq.exit.thread

11:                                               ; preds = %7
  %.not.i37 = icmp eq i32 %.val.i, 0
  br i1 %.not.i37, label %lean_nat_eq.exit.thread, label %12

12:                                               ; preds = %11
  tail call void @lean_inc_ref_cold(ptr noundef nonnull %4) #8
  br label %lean_nat_eq.exit.thread

lean_nat_eq.exit:                                 ; preds = %2
  %.not56 = icmp eq ptr %4, inttoptr (i64 1 to ptr)
  br i1 %.not56, label %.loopexit, label %14

lean_nat_eq.exit.thread:                          ; preds = %9, %11, %12
  %13 = tail call zeroext i1 @lean_nat_big_eq(ptr noundef nonnull %4, ptr noundef nonnull inttoptr (i64 1 to ptr)) #8
  br i1 %13, label %.thread49, label %.thread

14:                                               ; preds = %lean_nat_eq.exit
  %15 = icmp ult ptr %4, inttoptr (i64 2 to ptr)
  br i1 %15, label %lean_dec.exit28, label %16

16:                                               ; preds = %14
  %17 = add i64 %5, -2
  %18 = inttoptr i64 %17 to ptr
  br label %lean_dec.exit28

.thread:                                          ; preds = %lean_nat_eq.exit.thread
  %19 = tail call ptr @lean_nat_big_sub(ptr noundef nonnull %4, ptr noundef nonnull inttoptr (i64 3 to ptr)) #8
  %20 = load i32, ptr %4, align 4, !tbaa !4
  %21 = icmp sgt i32 %20, 1
  br i1 %21, label %22, label %24, !prof !11

22:                                               ; preds = %.thread
  %23 = add nsw i32 %20, -1
  store i32 %23, ptr %4, align 4, !tbaa !4
  br label %lean_dec.exit28

24:                                               ; preds = %.thread
  %.not.i = icmp eq i32 %20, 0
  br i1 %.not.i, label %lean_dec.exit28, label %25

25:                                               ; preds = %24
  tail call void @lean_dec_ref_cold(ptr noundef nonnull %4) #8
  br label %lean_dec.exit28

lean_dec.exit28:                                  ; preds = %16, %14, %25, %24, %22
  %.1.i46 = phi ptr [ %19, %22 ], [ %19, %24 ], [ %19, %25 ], [ inttoptr (i64 1 to ptr), %14 ], [ %18, %16 ]
  %26 = ptrtoint ptr %.023 to i64
  %27 = and i64 %26, 1
  %.not57 = icmp eq i64 %27, 0
  br i1 %.not57, label %28, label %lean_inc.exit

28:                                               ; preds = %lean_dec.exit28
  %.val.i38 = load i32, ptr %.023, align 4, !tbaa !4
  %29 = icmp sgt i32 %.val.i38, 0
  br i1 %29, label %30, label %32, !prof !11

30:                                               ; preds = %28
  %31 = add nuw i32 %.val.i38, 1
  store i32 %31, ptr %.023, align 4, !tbaa !4
  br label %lean_inc.exit

32:                                               ; preds = %28
  %.not.i39 = icmp eq i32 %.val.i38, 0
  br i1 %.not.i39, label %lean_inc.exit, label %33

33:                                               ; preds = %32
  tail call void @lean_inc_ref_cold(ptr noundef nonnull %.023) #8
  br label %lean_inc.exit

lean_inc.exit:                                    ; preds = %33, %32, %30, %lean_dec.exit28
  %34 = tail call ptr @l_Lean_PersistentArray_get_x21___rarg(ptr noundef nonnull inttoptr (i64 1 to ptr), ptr noundef nonnull %.023, ptr noundef %.1.i46) #8
  %35 = ptrtoint ptr %.1.i46 to i64
  %36 = and i64 %35, 1
  %.not58 = icmp eq i64 %36, 0
  br i1 %.not58, label %37, label %lean_dec.exit27

37:                                               ; preds = %lean_inc.exit
  %38 = load i32, ptr %.1.i46, align 4, !tbaa !4
  %39 = icmp sgt i32 %38, 1
  br i1 %39, label %40, label %42, !prof !11

40:                                               ; preds = %37
  %41 = add nsw i32 %38, -1
  store i32 %41, ptr %.1.i46, align 4, !tbaa !4
  br label %lean_dec.exit27

42:                                               ; preds = %37
  %.not.i30 = icmp eq i32 %38, 0
  br i1 %.not.i30, label %lean_dec.exit27, label %43

43:                                               ; preds = %42
  tail call void @lean_dec_ref_cold(ptr noundef nonnull %.1.i46) #8
  br label %lean_dec.exit27

lean_dec.exit27:                                  ; preds = %43, %42, %40, %lean_inc.exit
  %44 = ptrtoint ptr %34 to i64
  %45 = and i64 %44, 1
  %.not.i41 = icmp eq i64 %45, 0
  br i1 %.not.i41, label %lean_obj_tag.exit.thread, label %lean_obj_tag.exit

lean_obj_tag.exit:                                ; preds = %lean_dec.exit27
  %46 = and i64 %44, 8589934590
  %47 = icmp eq i64 %46, 0
  br i1 %47, label %lean_dec.exit26, label %.loopexit

lean_obj_tag.exit.thread:                         ; preds = %lean_dec.exit27
  %48 = getelementptr i8, ptr %34, i64 4
  %.val.i43 = load i32, ptr %48, align 4
  %49 = icmp ult i32 %.val.i43, 16777216
  br i1 %49, label %lean_dec.exit26, label %.thread48

.thread48:                                        ; preds = %lean_obj_tag.exit.thread
  %50 = load i32, ptr %34, align 4, !tbaa !4
  %51 = icmp sgt i32 %50, 1
  br i1 %51, label %52, label %54, !prof !11

52:                                               ; preds = %.thread48
  %53 = add nsw i32 %50, -1
  store i32 %53, ptr %34, align 4, !tbaa !4
  br label %.loopexit

54:                                               ; preds = %.thread48
  %.not.i32 = icmp eq i32 %50, 0
  br i1 %.not.i32, label %.loopexit, label %55

55:                                               ; preds = %54
  tail call void @lean_dec_ref_cold(ptr noundef nonnull %34) #8
  br label %.loopexit

.thread49:                                        ; preds = %lean_nat_eq.exit.thread
  %56 = load i32, ptr %4, align 4, !tbaa !4
  %57 = icmp sgt i32 %56, 1
  br i1 %57, label %58, label %60, !prof !11

58:                                               ; preds = %.thread49
  %59 = add nsw i32 %56, -1
  store i32 %59, ptr %4, align 4, !tbaa !4
  br label %.loopexit

60:                                               ; preds = %.thread49
  %.not.i34 = icmp eq i32 %56, 0
  br i1 %.not.i34, label %.loopexit, label %61

61:                                               ; preds = %60
  tail call void @lean_dec_ref_cold(ptr noundef nonnull %4) #8
  br label %.loopexit

lean_dec.exit26:                                  ; preds = %lean_obj_tag.exit, %lean_obj_tag.exit.thread
  %62 = tail call ptr @l_Lean_PersistentArray_pop___rarg(ptr noundef nonnull %.023) #8
  br label %2

.loopexit:                                        ; preds = %lean_obj_tag.exit, %lean_nat_eq.exit, %55, %54, %52, %61, %60, %58
  ret ptr %.023
}